target datalayout = "e-m:e-p270:32:32-p271:32:32-p272:64:64-i64:64-i128:128-f80:128-n8:16:32:64-S128"
target triple = "x86_64-pc-linux-gnu"

%struct._zval_struct = type { %union._zend_value, %union.anon, %union.anon.2 }
%union._zend_value = type { i64 }
%union.anon = type { i32 }
%union.anon.2 = type { i32 }
%struct.php_stream_pdosqlite3_data = type { ptr, i64, i64, i32 }
%struct._php_stream = type { ptr, ptr, %struct._php_stream_filter_chain, %struct._php_stream_filter_chain, ptr, ptr, %struct._zval_struct, i16, [16 x i8], i32, ptr, ptr, ptr, ptr, i64, ptr, i64, i64, i64, i64, ptr }
%struct._php_stream_filter_chain = type { ptr, ptr, ptr }

@.str.24 = private unnamed_addr constant [49 x i8] c"Can't write to blob stream: is open as read only\00", align 1
@.str.25 = private unnamed_addr constant [50 x i8] c"It is not possible to increase the size of a BLOB\00", align 1

; Function Attrs: nounwind uwtable
define internal i64 @php_pdosqlite3_stream_write(ptr noundef %0, ptr noundef %1, i64 noundef %2) #0 {
  %4 = alloca i64, align 8
  %5 = alloca ptr, align 8
  %6 = alloca ptr, align 8
  %7 = alloca i64, align 8
  %8 = alloca ptr, align 8
  %9 = alloca i32, align 4
  store ptr %0, ptr %5, align 8, !tbaa !89
  store ptr %1, ptr %6, align 8, !tbaa !18
  store i64 %2, ptr %7, align 8, !tbaa !49
  call void @llvm.lifetime.start.p0(i64 8, ptr %8) #12
  %10 = load ptr, ptr %5, align 8, !tbaa !89
  %11 = getelementptr inbounds nuw %struct._php_stream, ptr %10, i32 0, i32 1
  %12 = load ptr, ptr %11, align 8, !tbaa !106
  store ptr %12, ptr %8, align 8, !tbaa !71
  %13 = load ptr, ptr %8, align 8, !tbaa !71
  %14 = getelementptr inbounds nuw %struct.php_stream_pdosqlite3_data, ptr %13, i32 0, i32 3
  %15 = load i32, ptr %14, align 8, !tbaa !86
  %16 = and i32 %15, 1
  %17 = icmp ne i32 %16, 0
  br i1 %17, label %18, label %19

18:                                               ; preds = %3
  call void (ptr, i32, ptr, ...) @php_error_docref(ptr noundef null, i32 noundef 2, ptr noundef @.str.24)
  store i64 -1, ptr %4, align 8
  store i32 1, ptr %9, align 4
  br label %73

19:                                               ; preds = %3
  %20 = load ptr, ptr %8, align 8, !tbaa !71
  %21 = getelementptr inbounds nuw %struct.php_stream_pdosqlite3_data, ptr %20, i32 0, i32 1
  %22 = load i64, ptr %21, align 8, !tbaa !87
  %23 = load i64, ptr %7, align 8, !tbaa !49
  %24 = add i64 %22, %23
  %25 = load ptr, ptr %8, align 8, !tbaa !71
  %26 = getelementptr inbounds nuw %struct.php_stream_pdosqlite3_data, ptr %25, i32 0, i32 2
  %27 = load i64, ptr %26, align 8, !tbaa !88
  %28 = icmp ugt i64 %24, %27
  br i1 %28, label %29, label %30

29:                                               ; preds = %19
  call void (ptr, i32, ptr, ...) @php_error_docref(ptr noundef null, i32 noundef 2, ptr noundef @.str.25)
  store i64 -1, ptr %4, align 8
  store i32 1, ptr %9, align 4
  br label %73

30:                                               ; preds = %19
  %31 = load ptr, ptr %8, align 8, !tbaa !71
  %32 = getelementptr inbounds nuw %struct.php_stream_pdosqlite3_data, ptr %31, i32 0, i32 0
  %33 = load ptr, ptr %32, align 8, !tbaa !84
  %34 = load ptr, ptr %6, align 8, !tbaa !18
  %35 = load i64, ptr %7, align 8, !tbaa !49
  %36 = trunc i64 %35 to i32
  %37 = load ptr, ptr %8, align 8, !tbaa !71
  %38 = getelementptr inbounds nuw %struct.php_stream_pdosqlite3_data, ptr %37, i32 0, i32 1
  %39 = load i64, ptr %38, align 8, !tbaa !87
  %40 = trunc i64 %39 to i32
  %41 = call i32 @sqlite3_blob_write(ptr noundef %33, ptr noundef %34, i32 noundef %36, i32 noundef %40)
  %42 = icmp ne i32 %41, 0
  br i1 %42, label %43, label %44

43:                                               ; preds = %30
  store i64 -1, ptr %4, align 8
  store i32 1, ptr %9, align 4
  br label %73

44:                                               ; preds = %30
  %45 = load ptr, ptr %8, align 8, !tbaa !71
  %46 = getelementptr inbounds nuw %struct.php_stream_pdosqlite3_data, ptr %45, i32 0, i32 1
  %47 = load i64, ptr %46, align 8, !tbaa !87
  %48 = load i64, ptr %7, align 8, !tbaa !49
  %49 = add i64 %47, %48
  %50 = load ptr, ptr %8, align 8, !tbaa !71
  %51 = getelementptr inbounds nuw %struct.php_stream_pdosqlite3_data, ptr %50, i32 0, i32 2
  %52 = load i64, ptr %51, align 8, !tbaa !88
  %53 = icmp uge i64 %49, %52
  br i1 %53, label %54, label %65

54:                                               ; preds = %44
  %55 = load ptr, ptr %5, align 8, !tbaa !89
  %56 = getelementptr inbounds nuw %struct._php_stream, ptr %55, i32 0, i32 7
  %57 = load i16, ptr %56, align 8
  %58 = and i16 %57, -9
  %59 = or i16 %58, 8
  store i16 %59, ptr %56, align 8
  %60 = load ptr, ptr %8, align 8, !tbaa !71
  %61 = getelementptr inbounds nuw %struct.php_stream_pdosqlite3_data, ptr %60, i32 0, i32 2
  %62 = load i64, ptr %61, align 8, !tbaa !88
  %63 = load ptr, ptr %8, align 8, !tbaa !71
  %64 = getelementptr inbounds nuw %struct.php_stream_pdosqlite3_data, ptr %63, i32 0, i32 1
  store i64 %62, ptr %64, align 8, !tbaa !87
  br label %71

65:                                               ; preds = %44
  %66 = load i64, ptr %7, align 8, !tbaa !49
  %67 = load ptr, ptr %8, align 8, !tbaa !71
  %68 = getelementptr inbounds nuw %struct.php_stream_pdosqlite3_data, ptr %67, i32 0, i32 1
  %69 = load i64, ptr %68, align 8, !tbaa !87
  %70 = add i64 %69, %66
  store i64 %70, ptr %68, align 8, !tbaa !87
  br label %71

71:                                               ; preds = %65, %54
  %72 = load i64, ptr %7, align 8, !tbaa !49
  store i64 %72, ptr %4, align 8
  store i32 1, ptr %9, align 4
  br label %73

73:                                               ; preds = %71, %43, %29, %18
  call void @llvm.lifetime.end.p0(i64 8, ptr %8) #12
  %74 = load i64, ptr %4, align 8
  ret i64 %74
}